; ModuleID = '38/629.c'
source_filename = "38/629.c"
target datalayout = "e-m:e-p270:32:32-p271:32:32-p272:64:64-i64:64-f80:128-n8:16:32:64-S128"
target triple = "x86_64-pc-linux-gnu"

@.str = private unnamed_addr constant [3 x i8] c"%d\00", align 1
@.str.1 = private unnamed_addr constant [4 x i8] c"%lf\00", align 1
@sz = common dso_local global [100 x [1000 x double]] zeroinitializer, align 16
@.str.2 = private unnamed_addr constant [5 x i8] c"%.5f\00", align 1
@.str.3 = private unnamed_addr constant [6 x i8] c"\0A%.5f\00", align 1

; Function Attrs: noinline nounwind uwtable
define dso_local i32 @main() #0 {
  %1 = alloca i32, align 4
  %2 = alloca i32, align 4
  %3 = alloca i32, align 4
  %4 = alloca i32, align 4
  %5 = alloca i32, align 4
  %6 = alloca double, align 8
  %7 = alloca double, align 8
  %8 = alloca double, align 8
  %9 = alloca double, align 8
  store i32 0, i32* %1, align 4
  store double 0.000000e+00, double* %6, align 8
  store double 0.000000e+00, double* %7, align 8
  %10 = call i32 (i8*, ...) @__isoc99_scanf(i8* getelementptr inbounds ([3 x i8], [3 x i8]* @.str, i64 0, i64 0), i32* %2)
  %11 = call i32 (i8*, ...) @__isoc99_scanf(i8* getelementptr inbounds ([3 x i8], [3 x i8]* @.str, i64 0, i64 0), i32* %3)
  store i32 0, i32* %5, align 4
  br label %12

12:                                               ; preds = %27, %0
  %13 = load i32, i32* %5, align 4
  %14 = load i32, i32* %3, align 4
  %15 = icmp slt i32 %13, %14
  br i1 %15, label %16, label %30

16:                                               ; preds = %12
  %17 = load i32, i32* %5, align 4
  %18 = sext i32 %17 to i64
  %19 = getelementptr inbounds [1000 x double], [1000 x double]* getelementptr inbounds ([100 x [1000 x double]], [100 x [1000 x double]]* @sz, i64 0, i64 0), i64 0, i64 %18
  %20 = call i32 (i8*, ...) @__isoc99_scanf(i8* getelementptr inbounds ([4 x i8], [4 x i8]* @.str.1, i64 0, i64 0), double* %19)
  %21 = load i32, i32* %5, align 4
  %22 = sext i32 %21 to i64
  %23 = getelementptr inbounds [1000 x double], [1000 x double]* getelementptr inbounds ([100 x [1000 x double]], [100 x [1000 x double]]* @sz, i64 0, i64 0), i64 0, i64 %22
  %24 = load double, double* %23, align 8
  %25 = load double, double* %6, align 8
  %26 = fadd double %25, %24
  store double %26, double* %6, align 8
  br label %27

27:                                               ; preds = %16
  %28 = load i32, i32* %5, align 4
  %29 = add nsw i32 %28, 1
  store i32 %29, i32* %5, align 4
  br label %12

30:                                               ; preds = %12
  %31 = load double, double* %6, align 8
  %32 = load i32, i32* %3, align 4
  %33 = sitofp i32 %32 to double
  %34 = fdiv double %31, %33
  store double %34, double* %8, align 8
  store i32 0, i32* %5, align 4
  br label %35

35:                                               ; preds = %55, %30
  %36 = load i32, i32* %5, align 4
  %37 = load i32, i32* %3, align 4
  %38 = icmp slt i32 %36, %37
  br i1 %38, label %39, label %58

39:                                               ; preds = %35
  %40 = load i32, i32* %5, align 4
  %41 = sext i32 %40 to i64
  %42 = getelementptr inbounds [1000 x double], [1000 x double]* getelementptr inbounds ([100 x [1000 x double]], [100 x [1000 x double]]* @sz, i64 0, i64 0), i64 0, i64 %41
  %43 = load double, double* %42, align 8
  %44 = load double, double* %8, align 8
  %45 = fsub double %43, %44
  %46 = load i32, i32* %5, align 4
  %47 = sext i32 %46 to i64
  %48 = getelementptr inbounds [1000 x double], [1000 x double]* getelementptr inbounds ([100 x [1000 x double]], [100 x [1000 x double]]* @sz, i64 0, i64 0), i64 0, i64 %47
  %49 = load double, double* %48, align 8
  %50 = load double, double* %8, align 8
  %51 = fsub double %49, %50
  %52 = fmul double %45, %51
  %53 = load double, double* %7, align 8
  %54 = fadd double %53, %52
  store double %54, double* %7, align 8
  br label %55

55:                                               ; preds = %39
  %56 = load i32, i32* %5, align 4
  %57 = add nsw i32 %56, 1
  store i32 %57, i32* %5, align 4
  br label %35

58:                                               ; preds = %35
  %59 = load double, double* %7, align 8
  %60 = load i32, i32* %3, align 4
  %61 = sitofp i32 %60 to double
  %62 = fdiv double %59, %61
  %63 = call double @sqrt(double %62) #3
  store double %63, double* %9, align 8
  %64 = load double, double* %9, align 8
  %65 = call i32 (i8*, ...) @printf(i8* getelementptr inbounds ([5 x i8], [5 x i8]* @.str.2, i64 0, i64 0), double %64)
  store double 0.000000e+00, double* %6, align 8
  store double 0.000000e+00, double* %7, align 8
  store i32 1, i32* %4, align 4
  br label %66

66:                                               ; preds = %138, %58
  %67 = load i32, i32* %4, align 4
  %68 = load i32, i32* %2, align 4
  %69 = icmp slt i32 %67, %68
  br i1 %69, label %70, label %141

70:                                               ; preds = %66
  %71 = call i32 (i8*, ...) @__isoc99_scanf(i8* getelementptr inbounds ([3 x i8], [3 x i8]* @.str, i64 0, i64 0), i32* %3)
  store i32 0, i32* %5, align 4
  br label %72

72:                                               ; preds = %93, %70
  %73 = load i32, i32* %5, align 4
  %74 = load i32, i32* %3, align 4
  %75 = icmp slt i32 %73, %74
  br i1 %75, label %76, label %96

76:                                               ; preds = %72
  %77 = load i32, i32* %4, align 4
  %78 = sext i32 %77 to i64
  %79 = getelementptr inbounds [100 x [1000 x double]], [100 x [1000 x double]]* @sz, i64 0, i64 %78
  %80 = load i32, i32* %5, align 4
  %81 = sext i32 %80 to i64
  %82 = getelementptr inbounds [1000 x double], [1000 x double]* %79, i64 0, i64 %81
  %83 = call i32 (i8*, ...) @__isoc99_scanf(i8* getelementptr inbounds ([4 x i8], [4 x i8]* @.str.1, i64 0, i64 0), double* %82)
  %84 = load i32, i32* %4, align 4
  %85 = sext i32 %84 to i64
  %86 = getelementptr inbounds [100 x [1000 x double]], [100 x [1000 x double]]* @sz, i64 0, i64 %85
  %87 = load i32, i32* %5, align 4
  %88 = sext i32 %87 to i64
  %89 = getelementptr inbounds [1000 x double], [1000 x double]* %86, i64 0, i64 %88
  %90 = load double, double* %89, align 8
  %91 = load double, double* %6, align 8
  %92 = fadd double %91, %90
  store double %92, double* %6, align 8
  br label %93

93:                                               ; preds = %76
  %94 = load i32, i32* %5, align 4
  %95 = add nsw i32 %94, 1
  store i32 %95, i32* %5, align 4
  br label %72

96:                                               ; preds = %72
  %97 = load double, double* %6, align 8
  %98 = load i32, i32* %3, align 4
  %99 = sitofp i32 %98 to double
  %100 = fdiv double %97, %99
  store double %100, double* %8, align 8
  store i32 0, i32* %5, align 4
  br label %101

101:                                              ; preds = %127, %96
  %102 = load i32, i32* %5, align 4
  %103 = load i32, i32* %3, align 4
  %104 = icmp slt i32 %102, %103
  br i1 %104, label %105, label %130

105:                                              ; preds = %101
  %106 = load i32, i32* %4, align 4
  %107 = sext i32 %106 to i64
  %108 = getelementptr inbounds [100 x [1000 x double]], [100 x [1000 x double]]* @sz, i64 0, i64 %107
  %109 = load i32, i32* %5, align 4
  %110 = sext i32 %109 to i64
  %111 = getelementptr inbounds [1000 x double], [1000 x double]* %108, i64 0, i64 %110
  %112 = load double, double* %111, align 8
  %113 = load double, double* %8, align 8
  %114 = fsub double %112, %113
  %115 = load i32, i32* %4, align 4
  %116 = sext i32 %115 to i64
  %117 = getelementptr inbounds [100 x [1000 x double]], [100 x [1000 x double]]* @sz, i64 0, i64 %116
  %118 = load i32, i32* %5, align 4
  %119 = sext i32 %118 to i64
  %120 = getelementptr inbounds [1000 x double], [1000 x double]* %117, i64 0, i64 %119
  %121 = load double, double* %120, align 8
  %122 = load double, double* %8, align 8
  %123 = fsub double %121, %122
  %124 = fmul double %114, %123
  %125 = load double, double* %7, align 8
  %126 = fadd double %125, %124
  store double %126, double* %7, align 8
  br label %127

127:                                              ; preds = %105
  %128 = load i32, i32* %5, align 4
  %129 = add nsw i32 %128, 1
  store i32 %129, i32* %5, align 4
  br label %101

130:                                              ; preds = %101
  %131 = load double, double* %7, align 8
  %132 = load i32, i32* %3, align 4
  %133 = sitofp i32 %132 to double
  %134 = fdiv double %131, %133
  %135 = call double @sqrt(double %134) #3
  store double %135, double* %9, align 8
  %136 = load double, double* %9, align 8
  %137 = call i32 (i8*, ...) @printf(i8* getelementptr inbounds ([6 x i8], [6 x i8]* @.str.3, i64 0, i64 0), double %136)
  store double 0.000000e+00, double* %6, align 8
  store double 0.000000e+00, double* %7, align 8
  br label %138

138:                                              ; preds = %130
  %139 = load i32, i32* %4, align 4
  %140 = add nsw i32 %139, 1
  store i32 %140, i32* %4, align 4
  br label %66

141:                                              ; preds = %66
  ret i32 0
}

declare dso_local i32 @__isoc99_scanf(i8*, ...) #1

; Function Attrs: nounwind
declare dso_local double @sqrt(double) #2

declare dso_local i32 @printf(i8*, ...) #1


!llvm.module.flags = !{!0}
!llvm.ident = !{!1}

!0 = !{i32 1, !"wchar_size", i32 4}
!1 = !{!"clang version 10.0.0-4ubuntu1 "}
